target datalayout = "e-m:e-p270:32:32-p271:32:32-p272:64:64-i64:64-i128:128-f80:128-n8:16:32:64-S128"
target triple = "x86_64-pc-linux-gnu"

%struct.AVFilterContext = type { ptr, ptr, ptr, ptr, ptr, i32, ptr, ptr, i32, ptr, ptr, i32, i32, ptr, ptr, ptr, ptr, i32, ptr, i32, i32 }
%struct.TPadContext = type { ptr, i32, i32, i32, i32, i64, i64, [4 x i8], %struct.FFDrawContext, %struct.FFDrawColor, i64, i32, ptr, ptr }
%struct.FFDrawContext = type { ptr, i32, i32, [4 x i32], [4 x i8], [4 x i8], i8, i8, i32, i32, i32, [3 x [3 x double]] }
%struct.FFDrawColor = type { [4 x i8], [4 x %union.anon.2] }
%union.anon.2 = type { [4 x i32] }
%struct.AVRational = type { i32, i32 }
%struct.AVFilterLink = type { ptr, ptr, ptr, ptr, i32, i32, i32, i32, %struct.AVRational, i32, i32, i32, %struct.AVChannelLayout, %struct.AVRational, ptr, i32, %struct.AVFilterFormatsConfig, %struct.AVFilterFormatsConfig }
%struct.AVChannelLayout = type { i32, i32, %union.anon.1, ptr }
%union.anon.1 = type { i64 }
%struct.AVFilterFormatsConfig = type { ptr, ptr, ptr, ptr, ptr }
%struct.FilterLink = type { %struct.AVFilterLink, ptr, i64, i64, i32, i32, i64, i64, i64, i64, %struct.AVRational, ptr }

@.str.3 = private unnamed_addr constant [36 x i8] c"Failed to initialize FFDrawContext\0A\00", align 1

; Function Attrs: alwaysinline nounwind uwtable
define internal i64 @av_inv_q(i64 %0) #6 {
  %2 = alloca %struct.AVRational, align 4
  %3 = alloca %struct.AVRational, align 4
  store i64 %0, ptr %3, align 4
  %4 = getelementptr inbounds nuw %struct.AVRational, ptr %2, i32 0, i32 0
  %5 = getelementptr inbounds nuw %struct.AVRational, ptr %3, i32 0, i32 1
  %6 = load i32, ptr %5, align 4, !tbaa !72
  store i32 %6, ptr %4, align 4, !tbaa !71
  %7 = getelementptr inbounds nuw %struct.AVRational, ptr %2, i32 0, i32 1
  %8 = getelementptr inbounds nuw %struct.AVRational, ptr %3, i32 0, i32 0
  %9 = load i32, ptr %8, align 4, !tbaa !71
  store i32 %9, ptr %7, align 4, !tbaa !72
  %10 = load i64, ptr %2, align 4
  ret i64 %10
}

; Function Attrs: nounwind uwtable
define internal i32 @needs_drawing(ptr noundef %0) #1 {
  %2 = alloca ptr, align 8
  store ptr %0, ptr %2, align 8, !tbaa !22
  %3 = load ptr, ptr %2, align 8, !tbaa !22
  %4 = getelementptr inbounds nuw %struct.TPadContext, ptr %3, i32 0, i32 4
  %5 = load i32, ptr %4, align 4, !tbaa !64
  %6 = icmp eq i32 %5, 0
  br i1 %6, label %7, label %17

7:                                                ; preds = %1
  %8 = load ptr, ptr %2, align 8, !tbaa !22
  %9 = getelementptr inbounds nuw %struct.TPadContext, ptr %8, i32 0, i32 2
  %10 = load i32, ptr %9, align 4, !tbaa !42
  %11 = icmp ne i32 %10, 0
  br i1 %11, label %36, label %12

12:                                               ; preds = %7
  %13 = load ptr, ptr %2, align 8, !tbaa !22
  %14 = getelementptr inbounds nuw %struct.TPadContext, ptr %13, i32 0, i32 6
  %15 = load i64, ptr %14, align 8, !tbaa !73
  %16 = icmp ne i64 %15, 0
  br i1 %16, label %36, label %17

17:                                               ; preds = %12, %1
  %18 = load ptr, ptr %2, align 8, !tbaa !22
  %19 = getelementptr inbounds nuw %struct.TPadContext, ptr %18, i32 0, i32 3
  %20 = load i32, ptr %19, align 8, !tbaa !45
  %21 = icmp eq i32 %20, 0
  br i1 %21, label %22, label %34

22:                                               ; preds = %17
  %23 = load ptr, ptr %2, align 8, !tbaa !22
  %24 = getelementptr inbounds nuw %struct.TPadContext, ptr %23, i32 0, i32 1
  %25 = load i32, ptr %24, align 8, !tbaa !43
  %26 = icmp ne i32 %25, 0
  br i1 %26, label %32, label %27

27:                                               ; preds = %22
  %28 = load ptr, ptr %2, align 8, !tbaa !22
  %29 = getelementptr inbounds nuw %struct.TPadContext, ptr %28, i32 0, i32 5
  %30 = load i64, ptr %29, align 8, !tbaa !70
  %31 = icmp ne i64 %30, 0
  br label %32

32:                                               ; preds = %27, %22
  %33 = phi i1 [ true, %22 ], [ %31, %27 ]
  br label %34

34:                                               ; preds = %32, %17
  %35 = phi i1 [ false, %17 ], [ %33, %32 ]
  br label %36

36:                                               ; preds = %34, %12, %7
  %37 = phi i1 [ true, %12 ], [ true, %7 ], [ %35, %34 ]
  %38 = zext i1 %37 to i32
  ret i32 %38
}

; Function Attrs: inlinehint nounwind uwtable
define internal ptr @ff_filter_link(ptr noundef %0) #3 {
  %2 = alloca ptr, align 8
  store ptr %0, ptr %2, align 8, !tbaa !27
  %3 = load ptr, ptr %2, align 8, !tbaa !27
  ret ptr %3
}

; Function Attrs: nounwind uwtable
define internal i32 @config_input(ptr noundef %0) #1 {
  %2 = alloca i32, align 4
  %3 = alloca ptr, align 8
  %4 = alloca ptr, align 8
  %5 = alloca ptr, align 8
  %6 = alloca ptr, align 8
  %7 = alloca i32, align 4
  %8 = alloca i32, align 4
  %9 = alloca %struct.AVRational, align 4
  %10 = alloca %struct.AVRational, align 4
  %11 = alloca %struct.AVRational, align 4
  %12 = alloca %struct.AVRational, align 4
  store ptr %0, ptr %3, align 8, !tbaa !27
  call void @llvm.lifetime.start.p0(i64 8, ptr %4) #7
  %13 = load ptr, ptr %3, align 8, !tbaa !27
  %14 = getelementptr inbounds nuw %struct.AVFilterLink, ptr %13, i32 0, i32 2
  %15 = load ptr, ptr %14, align 8, !tbaa !66
  store ptr %15, ptr %4, align 8, !tbaa !4
  call void @llvm.lifetime.start.p0(i64 8, ptr %5) #7
  %16 = load ptr, ptr %3, align 8, !tbaa !27
  %17 = call ptr @ff_filter_link(ptr noundef %16)
  store ptr %17, ptr %5, align 8, !tbaa !30
  call void @llvm.lifetime.start.p0(i64 8, ptr %6) #7
  %18 = load ptr, ptr %4, align 8, !tbaa !4
  %19 = getelementptr inbounds nuw %struct.AVFilterContext, ptr %18, i32 0, i32 9
  %20 = load ptr, ptr %19, align 8, !tbaa !9
  store ptr %20, ptr %6, align 8, !tbaa !22
  call void @llvm.lifetime.start.p0(i64 4, ptr %7) #7
  %21 = load ptr, ptr %6, align 8, !tbaa !22
  %22 = call i32 @needs_drawing(ptr noundef %21)
  %23 = icmp ne i32 %22, 0
  br i1 %23, label %24, label %50

24:                                               ; preds = %1
  %25 = load ptr, ptr %6, align 8, !tbaa !22
  %26 = getelementptr inbounds nuw %struct.TPadContext, ptr %25, i32 0, i32 8
  %27 = load ptr, ptr %3, align 8, !tbaa !27
  %28 = getelementptr inbounds nuw %struct.AVFilterLink, ptr %27, i32 0, i32 5
  %29 = load i32, ptr %28, align 4, !tbaa !67
  %30 = load ptr, ptr %3, align 8, !tbaa !27
  %31 = getelementptr inbounds nuw %struct.AVFilterLink, ptr %30, i32 0, i32 9
  %32 = load i32, ptr %31, align 8, !tbaa !68
  %33 = load ptr, ptr %3, align 8, !tbaa !27
  %34 = getelementptr inbounds nuw %struct.AVFilterLink, ptr %33, i32 0, i32 10
  %35 = load i32, ptr %34, align 4, !tbaa !69
  %36 = call i32 @ff_draw_init2(ptr noundef %26, i32 noundef %29, i32 noundef %32, i32 noundef %35, i32 noundef 0)
  store i32 %36, ptr %7, align 4, !tbaa !34
  %37 = load i32, ptr %7, align 4, !tbaa !34
  %38 = icmp slt i32 %37, 0
  br i1 %38, label %39, label %42

39:                                               ; preds = %24
  %40 = load ptr, ptr %4, align 8, !tbaa !4
  call void (ptr, i32, ptr, ...) @av_log(ptr noundef %40, i32 noundef 16, ptr noundef @.str.3)
  %41 = load i32, ptr %7, align 4, !tbaa !34
  store i32 %41, ptr %2, align 4
  store i32 1, ptr %8, align 4
  br label %93

42:                                               ; preds = %24
  %43 = load ptr, ptr %6, align 8, !tbaa !22
  %44 = getelementptr inbounds nuw %struct.TPadContext, ptr %43, i32 0, i32 8
  %45 = load ptr, ptr %6, align 8, !tbaa !22
  %46 = getelementptr inbounds nuw %struct.TPadContext, ptr %45, i32 0, i32 9
  %47 = load ptr, ptr %6, align 8, !tbaa !22
  %48 = getelementptr inbounds nuw %struct.TPadContext, ptr %47, i32 0, i32 7
  %49 = getelementptr inbounds [4 x i8], ptr %48, i64 0, i64 0
  call void @ff_draw_color(ptr noundef %44, ptr noundef %46, ptr noundef %49)
  br label %50

50:                                               ; preds = %42, %1
  %51 = load ptr, ptr %6, align 8, !tbaa !22
  %52 = getelementptr inbounds nuw %struct.TPadContext, ptr %51, i32 0, i32 5
  %53 = load i64, ptr %52, align 8, !tbaa !70
  %54 = icmp ne i64 %53, 0
  br i1 %54, label %55, label %71

55:                                               ; preds = %50
  %56 = load ptr, ptr %6, align 8, !tbaa !22
  %57 = getelementptr inbounds nuw %struct.TPadContext, ptr %56, i32 0, i32 5
  %58 = load i64, ptr %57, align 8, !tbaa !70
  %59 = load ptr, ptr %5, align 8, !tbaa !30
  %60 = getelementptr inbounds nuw %struct.FilterLink, ptr %59, i32 0, i32 10
  %61 = getelementptr inbounds nuw %struct.AVRational, ptr %10, i32 0, i32 0
  store i32 1, ptr %61, align 4, !tbaa !71
  %62 = getelementptr inbounds nuw %struct.AVRational, ptr %10, i32 0, i32 1
  store i32 1000000, ptr %62, align 4, !tbaa !72
  %63 = load i64, ptr %10, align 4
  %64 = call i64 @av_inv_q(i64 %63)
  store i64 %64, ptr %9, align 4
  %65 = load i64, ptr %60, align 8
  %66 = load i64, ptr %9, align 4
  %67 = call i64 @av_rescale_q(i64 noundef %58, i64 %65, i64 %66) #8
  %68 = trunc i64 %67 to i32
  %69 = load ptr, ptr %6, align 8, !tbaa !22
  %70 = getelementptr inbounds nuw %struct.TPadContext, ptr %69, i32 0, i32 1
  store i32 %68, ptr %70, align 8, !tbaa !43
  br label %71

71:                                               ; preds = %55, %50
  %72 = load ptr, ptr %6, align 8, !tbaa !22
  %73 = getelementptr inbounds nuw %struct.TPadContext, ptr %72, i32 0, i32 6
  %74 = load i64, ptr %73, align 8, !tbaa !73
  %75 = icmp ne i64 %74, 0
  br i1 %75, label %76, label %92

76:                                               ; preds = %71
  %77 = load ptr, ptr %6, align 8, !tbaa !22
  %78 = getelementptr inbounds nuw %struct.TPadContext, ptr %77, i32 0, i32 6
  %79 = load i64, ptr %78, align 8, !tbaa !73
  %80 = load ptr, ptr %5, align 8, !tbaa !30
  %81 = getelementptr inbounds nuw %struct.FilterLink, ptr %80, i32 0, i32 10
  %82 = getelementptr inbounds nuw %struct.AVRational, ptr %12, i32 0, i32 0
  store i32 1, ptr %82, align 4, !tbaa !71
  %83 = getelementptr inbounds nuw %struct.AVRational, ptr %12, i32 0, i32 1
  store i32 1000000, ptr %83, align 4, !tbaa !72
  %84 = load i64, ptr %12, align 4
  %85 = call i64 @av_inv_q(i64 %84)
  store i64 %85, ptr %11, align 4
  %86 = load i64, ptr %81, align 8
  %87 = load i64, ptr %11, align 4
  %88 = call i64 @av_rescale_q(i64 noundef %79, i64 %86, i64 %87) #8
  %89 = trunc i64 %88 to i32
  %90 = load ptr, ptr %6, align 8, !tbaa !22
  %91 = getelementptr inbounds nuw %struct.TPadContext, ptr %90, i32 0, i32 2
  store i32 %89, ptr %91, align 4, !tbaa !42
  br label %92

92:                                               ; preds = %76, %71
  store i32 0, ptr %2, align 4
  store i32 1, ptr %8, align 4
  br label %93

93:                                               ; preds = %92, %39
  call void @llvm.lifetime.end.p0(i64 4, ptr %7) #7
  call void @llvm.lifetime.end.p0(i64 8, ptr %6) #7
  call void @llvm.lifetime.end.p0(i64 8, ptr %5) #7
  call void @llvm.lifetime.end.p0(i64 8, ptr %4) #7
  %94 = load i32, ptr %2, align 4
  ret i32 %94
}