; Function Attrs: nounwind uwtable
define internal range(i32 -2147483648, 1) i32 @config_input(ptr noundef readonly captures(none) %0) #1 {
  %2 = getelementptr inbounds nuw i8, ptr %0, i64 16
  %3 = load ptr, ptr %2, align 8, !tbaa !60
  %4 = getelementptr inbounds nuw i8, ptr %3, i64 72
  %5 = load ptr, ptr %4, align 8, !tbaa !4
  %6 = getelementptr inbounds nuw i8, ptr %5, i64 20
  %7 = load i32, ptr %6, align 4, !tbaa !20
  %8 = icmp eq i32 %7, 0
  br i1 %8, label %9, label %15

9:                                                ; preds = %1
  %10 = getelementptr inbounds nuw i8, ptr %5, i64 12
  %11 = load i32, ptr %10, align 4, !tbaa !27
  %.not.i = icmp eq i32 %11, 0
  br i1 %.not.i, label %12, label %needs_drawing.exit.thread

12:                                               ; preds = %9
  %13 = getelementptr inbounds nuw i8, ptr %5, i64 32
  %14 = load i64, ptr %13, align 8, !tbaa !28
  %.not6.i = icmp eq i64 %14, 0
  br i1 %.not6.i, label %15, label %needs_drawing.exit.thread

15:                                               ; preds = %12, %1
  %16 = getelementptr inbounds nuw i8, ptr %5, i64 16
  %17 = load i32, ptr %16, align 8, !tbaa !29
  %18 = icmp eq i32 %17, 0
  br i1 %18, label %19, label %needs_drawing.exit.thread32

19:                                               ; preds = %15
  %20 = getelementptr inbounds nuw i8, ptr %5, i64 8
  %21 = load i32, ptr %20, align 8, !tbaa !30
  %.not7.i = icmp eq i32 %21, 0
  br i1 %.not7.i, label %needs_drawing.exit, label %needs_drawing.exit.thread

needs_drawing.exit:                               ; preds = %19
  %22 = getelementptr inbounds nuw i8, ptr %5, i64 24
  %23 = load i64, ptr %22, align 8, !tbaa !31
  %.not34 = icmp eq i64 %23, 0
  br i1 %.not34, label %needs_drawing.exit.thread32, label %needs_drawing.exit.thread

needs_drawing.exit.thread:                        ; preds = %19, %9, %12, %needs_drawing.exit
  %24 = getelementptr inbounds nuw i8, ptr %5, i64 48
  %25 = getelementptr inbounds nuw i8, ptr %0, i64 36
  %26 = load i32, ptr %25, align 4, !tbaa !61
  %27 = getelementptr inbounds nuw i8, ptr %0, i64 56
  %28 = load i32, ptr %27, align 8, !tbaa !62
  %29 = getelementptr inbounds nuw i8, ptr %0, i64 60
  %30 = load i32, ptr %29, align 4, !tbaa !63
  %31 = tail call i32 @ff_draw_init2(ptr noundef nonnull %24, i32 noundef %26, i32 noundef %28, i32 noundef %30, i32 noundef 0) #6
  %32 = icmp slt i32 %31, 0
  br i1 %32, label %33, label %34

33:                                               ; preds = %needs_drawing.exit.thread
  tail call void (ptr, i32, ptr, ...) @av_log(ptr noundef nonnull %3, i32 noundef 16, ptr noundef nonnull @.str.3) #6
  br label %54

34:                                               ; preds = %needs_drawing.exit.thread
  %35 = getelementptr inbounds nuw i8, ptr %5, i64 176
  %36 = getelementptr inbounds nuw i8, ptr %5, i64 40
  tail call void @ff_draw_color(ptr noundef nonnull %24, ptr noundef nonnull %35, ptr noundef nonnull %36) #6
  br label %needs_drawing.exit.thread32

needs_drawing.exit.thread32:                      ; preds = %15, %34, %needs_drawing.exit
  %37 = getelementptr inbounds nuw i8, ptr %5, i64 24
  %38 = load i64, ptr %37, align 8, !tbaa !31
  %.not29 = icmp eq i64 %38, 0
  br i1 %.not29, label %45, label %39

39:                                               ; preds = %needs_drawing.exit.thread32
  %40 = getelementptr inbounds nuw i8, ptr %0, i64 264
  %41 = load i64, ptr %40, align 8
  %42 = tail call i64 @av_rescale_q(i64 noundef %38, i64 %41, i64 4295967296) #7
  %43 = trunc i64 %42 to i32
  %44 = getelementptr inbounds nuw i8, ptr %5, i64 8
  store i32 %43, ptr %44, align 8, !tbaa !30
  br label %45

45:                                               ; preds = %39, %needs_drawing.exit.thread32
  %46 = getelementptr inbounds nuw i8, ptr %5, i64 32
  %47 = load i64, ptr %46, align 8, !tbaa !28
  %.not30 = icmp eq i64 %47, 0
  br i1 %.not30, label %54, label %48

48:                                               ; preds = %45
  %49 = getelementptr inbounds nuw i8, ptr %0, i64 264
  %50 = load i64, ptr %49, align 8
  %51 = tail call i64 @av_rescale_q(i64 noundef %47, i64 %50, i64 4295967296) #7
  %52 = trunc i64 %51 to i32
  %53 = getelementptr inbounds nuw i8, ptr %5, i64 12
  store i32 %52, ptr %53, align 4, !tbaa !27
  br label %54

54:                                               ; preds = %45, %48, %33
  %.0 = phi i32 [ %31, %33 ], [ 0, %48 ], [ 0, %45 ]
  ret i32 %.0
}